; Function Attrs: mustprogress nounwind uwtable
define hidden void @_ZN14KlassInfoTable7iterateEP16KlassInfoClosure(ptr nocapture noundef nonnull readonly align 8 dereferenceable(24) %0, ptr noundef %1) local_unnamed_addr #0 align 2 {
  %3 = getelementptr inbounds i8, ptr %0, i64 16
  br label %4

4:                                                ; preds = %2, %_ZN15KlassInfoBucket7iterateEP16KlassInfoClosure.exit
  %indvars.iv = phi i64 [ 0, %2 ], [ %indvars.iv.next, %_ZN15KlassInfoBucket7iterateEP16KlassInfoClosure.exit ]
  %5 = load ptr, ptr %3, align 8
  %6 = getelementptr inbounds %class.KlassInfoBucket, ptr %5, i64 %indvars.iv
  %.05.i = load ptr, ptr %6, align 8
  %.not6.i = icmp eq ptr %.05.i, null
  br i1 %.not6.i, label %_ZN15KlassInfoBucket7iterateEP16KlassInfoClosure.exit, label %.lr.ph.i

.lr.ph.i:                                         ; preds = %4, %.lr.ph.i
  %.07.i = phi ptr [ %.0.i, %.lr.ph.i ], [ %.05.i, %4 ]
  %7 = load ptr, ptr %1, align 8
  %8 = load ptr, ptr %7, align 8
  tail call void %8(ptr noundef nonnull align 8 dereferenceable(8) %1, ptr noundef nonnull %.07.i) #15
  %.0.i = load ptr, ptr %.07.i, align 8
  %.not.i = icmp eq ptr %.0.i, null
  br i1 %.not.i, label %_ZN15KlassInfoBucket7iterateEP16KlassInfoClosure.exit, label %.lr.ph.i, !llvm.loop !8

_ZN15KlassInfoBucket7iterateEP16KlassInfoClosure.exit: ; preds = %.lr.ph.i, %4
  %indvars.iv.next = add nuw nsw i64 %indvars.iv, 1
  %exitcond.not = icmp eq i64 %indvars.iv.next, 20011
  br i1 %exitcond.not, label %9, label %4, !llvm.loop !12

9:                                                ; preds = %_ZN15KlassInfoBucket7iterateEP16KlassInfoClosure.exit
  ret void
}